; Function Attrs: mustprogress uwtable
define noundef nonnull align 8 dereferenceable(120) ptr @_ZN4GURLaSES_(ptr noundef nonnull returned align 8 dereferenceable(120) %0, ptr noundef nonnull %1) local_unnamed_addr #0 align 2 personality ptr @__gxx_personality_v0 {
  %3 = alloca %"struct.url::Parsed", align 8
  tail call void @_ZNSt7__cxx1112basic_stringIcSt11char_traitsIcESaIcEE4swapERS4_(ptr noundef nonnull align 8 dereferenceable(120) %0, ptr noundef nonnull align 8 dereferenceable(32) %1) #17
  %4 = getelementptr inbounds nuw i8, ptr %0, i64 32
  %5 = getelementptr inbounds nuw i8, ptr %1, i64 32
  %6 = load i8, ptr %4, align 8, !tbaa !35, !range !30, !noundef !31
  %7 = load i8, ptr %5, align 1, !tbaa !35, !range !30, !noundef !31
  store i8 %7, ptr %4, align 8, !tbaa !35
  store i8 %6, ptr %5, align 1, !tbaa !35
  %8 = getelementptr inbounds nuw i8, ptr %0, i64 40
  %9 = getelementptr inbounds nuw i8, ptr %1, i64 40
  call void @llvm.lifetime.start.p0(i64 72, ptr nonnull %3) #17
  call void @_ZN3url6ParsedC1ERKS0_(ptr noundef nonnull align 8 dereferenceable(72) %3, ptr noundef nonnull align 8 dereferenceable(72) %8)
  %10 = invoke noundef nonnull align 8 dereferenceable(72) ptr @_ZN3url6ParsedaSERKS0_(ptr noundef nonnull align 8 dereferenceable(72) %8, ptr noundef nonnull align 8 dereferenceable(72) %9)
          to label %11 unwind label %13

11:                                               ; preds = %2
  %12 = invoke noundef nonnull align 8 dereferenceable(72) ptr @_ZN3url6ParsedaSERKS0_(ptr noundef nonnull align 8 dereferenceable(72) %9, ptr noundef nonnull align 8 dereferenceable(72) %3)
          to label %_ZN4GURL4SwapEPS_.exit unwind label %13

13:                                               ; preds = %11, %2
  %14 = landingpad { ptr, i32 }
          cleanup
  call void @_ZN3url6ParsedD1Ev(ptr noundef nonnull align 8 dereferenceable(72) %3) #17
  call void @llvm.lifetime.end.p0(i64 72, ptr nonnull %3) #17
  resume { ptr, i32 } %14

_ZN4GURL4SwapEPS_.exit:                           ; preds = %11
  call void @_ZN3url6ParsedD1Ev(ptr noundef nonnull align 8 dereferenceable(72) %3) #17
  call void @llvm.lifetime.end.p0(i64 72, ptr nonnull %3) #17
  %15 = getelementptr inbounds nuw i8, ptr %0, i64 112
  %16 = getelementptr inbounds nuw i8, ptr %1, i64 112
  %17 = load ptr, ptr %15, align 8, !tbaa !32
  %18 = load ptr, ptr %16, align 8, !tbaa !32
  store ptr %18, ptr %15, align 8, !tbaa !32
  store ptr %17, ptr %16, align 8, !tbaa !32
  ret ptr %0
}